; Function Attrs: null_pointer_is_valid sspstrong uwtable
define internal i32 @dissect_nfs4_compound_reply(ptr noundef %0, ptr noundef %1, ptr noundef %2, ptr noundef %3) #0 {
  %5 = alloca i32, align 4
  %6 = alloca ptr, align 8
  call void @llvm.lifetime.start.p0(i64 8, ptr nonnull %6) #22
  store ptr null, ptr %6, align 8
  call void @llvm.lifetime.start.p0(i64 4, ptr nonnull %5) #22
  %7 = load i32, ptr @hf_nfs4_status, align 4
  %8 = call ptr @proto_tree_add_item_ret_uint(ptr noundef %2, i32 noundef %7, ptr noundef %0, i32 noundef 0, i32 noundef 4, i32 noundef 0, ptr noundef nonnull %5)
  %9 = load i32, ptr @hf_nfs_status, align 4
  %10 = load i32, ptr %5, align 4
  %11 = call ptr @proto_tree_add_uint(ptr noundef %2, i32 noundef %9, ptr noundef %0, i32 noundef 0, i32 noundef 4, i32 noundef %10)
  %.not.i.i = icmp eq ptr %11, null
  br i1 %.not.i.i, label %dissect_nfs4_status.exit, label %12

12:                                               ; preds = %4
  %13 = getelementptr inbounds nuw i8, ptr %11, i64 40
  %14 = load ptr, ptr %13, align 8
  %.not5.i.i = icmp eq ptr %14, null
  br i1 %.not5.i.i, label %dissect_nfs4_status.exit, label %15

15:                                               ; preds = %12
  %16 = getelementptr inbounds nuw i8, ptr %14, i64 28
  %17 = load i32, ptr %16, align 4
  %18 = or i32 %17, 1
  store i32 %18, ptr %16, align 4
  br label %dissect_nfs4_status.exit

dissect_nfs4_status.exit:                         ; preds = %4, %12, %15
  %19 = load i32, ptr %5, align 4
  call void @llvm.lifetime.end.p0(i64 4, ptr nonnull %5) #22
  %20 = load i32, ptr @hf_nfs4_tag, align 4
  %21 = call i32 @dissect_rpc_string(ptr noundef %0, ptr noundef %2, i32 noundef %20, i32 noundef 4, ptr noundef nonnull %6)
  %22 = load i8, ptr @nfs_display_v4_tag, align 1, !range !10, !noundef !11
  %23 = trunc nuw i8 %22 to i1
  br i1 %23, label %24, label %30

24:                                               ; preds = %dissect_nfs4_status.exit
  %25 = load ptr, ptr %6, align 8
  %26 = call i32 @strncmp(ptr noundef %25, ptr noundef nonnull dereferenceable(8) @.str.2367, i64 noundef 7) #21
  %.not = icmp eq i32 %26, 0
  br i1 %.not, label %30, label %27

27:                                               ; preds = %24
  %28 = getelementptr inbounds nuw i8, ptr %1, i64 8
  %29 = load ptr, ptr %28, align 8
  call void (ptr, i32, ptr, ...) @col_append_fstr(ptr noundef %29, i32 noundef 25, ptr noundef nonnull @.str.2, ptr noundef %25)
  br label %30

30:                                               ; preds = %27, %24, %dissect_nfs4_status.exit
  %31 = call fastcc i32 @dissect_nfs4_response_op(ptr noundef %0, i32 noundef %21, ptr noundef %1, ptr noundef %2, ptr noundef %3)
  %.not13 = icmp eq i32 %19, 0
  br i1 %.not13, label %36, label %32

32:                                               ; preds = %30
  %33 = getelementptr inbounds nuw i8, ptr %1, i64 8
  %34 = load ptr, ptr %33, align 8
  %35 = call ptr @val_to_str_ext(i32 noundef %19, ptr noundef nonnull @names_nfs4_status_ext, ptr noundef nonnull @.str.2241)
  call void (ptr, i32, ptr, ...) @col_append_fstr(ptr noundef %34, i32 noundef 25, ptr noundef nonnull @.str.2494, ptr noundef %35)
  br label %36

36:                                               ; preds = %32, %30
  call void @llvm.lifetime.end.p0(i64 8, ptr nonnull %6) #22
  ret i32 %31
}